target datalayout = "e-m:e-p270:32:32-p271:32:32-p272:64:64-i64:64-i128:128-f80:128-n8:16:32:64-S128"
target triple = "x86_64-pc-linux-gnu"

@.str.55 = private unnamed_addr constant [9 x i8] c"fr.nlpid\00", align 1
@proto_register_fr.ett = internal global [3 x ptr] [ptr @ett_fr, ptr @ett_fr_address, ptr @ett_fr_control], align 16
@.str.86 = private unnamed_addr constant [12 x i8] c"Frame Relay\00", align 1
@.str.87 = private unnamed_addr constant [3 x i8] c"FR\00", align 1
@.str.88 = private unnamed_addr constant [3 x i8] c"fr\00", align 1
@proto_fr = internal global i32 0, align 4
@.str.89 = private unnamed_addr constant [18 x i8] c"Frame Relay NLPID\00", align 1
@fr_subdissector_table = internal global ptr null, align 8
@.str.90 = private unnamed_addr constant [9 x i8] c"fr.osinl\00", align 1
@.str.91 = private unnamed_addr constant [22 x i8] c"Frame Relay OSI NLPID\00", align 1
@fr_osinl_subdissector_table = internal global ptr null, align 8
@.str.92 = private unnamed_addr constant [16 x i8] c"fr_uncompressed\00", align 1
@fr_handle = internal global ptr null, align 8
@.str.93 = private unnamed_addr constant [20 x i8] c"fr_stripped_address\00", align 1
@.str.94 = private unnamed_addr constant [6 x i8] c"encap\00", align 1
@.str.95 = private unnamed_addr constant [14 x i8] c"Encapsulation\00", align 1
@fr_encap = internal global i32 0, align 4

; Function Attrs: null_pointer_is_valid sspstrong uwtable
define hidden void @proto_register_fr() #0 {
  %1 = alloca ptr, align 8
  %2 = alloca ptr, align 8
  call void @llvm.lifetime.start.p0(i64 8, ptr %1) #4
  call void @llvm.lifetime.start.p0(i64 8, ptr %2) #4
  %3 = call i32 @proto_register_protocol(ptr noundef @.str.86, ptr noundef @.str.87, ptr noundef @.str.88)
  store i32 %3, ptr @proto_fr, align 4
  %4 = load i32, ptr @proto_fr, align 4
  call void @proto_register_field_array(i32 noundef %4, ptr noundef @proto_register_fr.hf, i32 noundef 33)
  call void @proto_register_subtree_array(ptr noundef @proto_register_fr.ett, i32 noundef 3)
  %5 = load i32, ptr @proto_fr, align 4
  %6 = call ptr @expert_register_protocol(i32 noundef %5)
  store ptr %6, ptr %2, align 8
  %7 = load ptr, ptr %2, align 8
  call void @expert_register_field_array(ptr noundef %7, ptr noundef @proto_register_fr.ei, i32 noundef 3)
  %8 = load i32, ptr @proto_fr, align 4
  %9 = call ptr @register_dissector_table(ptr noundef @.str.55, ptr noundef @.str.89, i32 noundef %8, i32 noundef 4, i32 noundef 2)
  store ptr %9, ptr @fr_subdissector_table, align 8
  %10 = load i32, ptr @proto_fr, align 4
  %11 = call ptr @register_dissector_table(ptr noundef @.str.90, ptr noundef @.str.91, i32 noundef %10, i32 noundef 4, i32 noundef 2)
  store ptr %11, ptr @fr_osinl_subdissector_table, align 8
  %12 = load i32, ptr @proto_fr, align 4
  %13 = call ptr @register_dissector(ptr noundef @.str.92, ptr noundef @dissect_fr_uncompressed, i32 noundef %12)
  %14 = load i32, ptr @proto_fr, align 4
  %15 = call ptr @register_dissector(ptr noundef @.str.88, ptr noundef @dissect_fr, i32 noundef %14)
  store ptr %15, ptr @fr_handle, align 8
  %16 = load i32, ptr @proto_fr, align 4
  %17 = call ptr @register_dissector(ptr noundef @.str.93, ptr noundef @dissect_fr_stripped_address, i32 noundef %16)
  %18 = load i32, ptr @proto_fr, align 4
  %19 = call ptr @prefs_register_protocol(i32 noundef %18, ptr noundef null)
  store ptr %19, ptr %1, align 8
  %20 = load ptr, ptr %1, align 8
  call void @prefs_register_enum_preference(ptr noundef %20, ptr noundef @.str.94, ptr noundef @.str.95, ptr noundef @.str.95, ptr noundef @fr_encap, ptr noundef @proto_register_fr.fr_encap_options, i1 noundef zeroext false)
  call void @register_capture_dissector_table(ptr noundef @.str.55, ptr noundef @.str.89)
  call void @llvm.lifetime.end.p0(i64 8, ptr %2) #4
  call void @llvm.lifetime.end.p0(i64 8, ptr %1) #4
  ret void
}