; Function Attrs: null_pointer_is_valid sspstrong uwtable
define hidden void @proto_register_fr() local_unnamed_addr #0 {
  %1 = tail call i32 @proto_register_protocol(ptr noundef nonnull @.str.86, ptr noundef nonnull @.str.87, ptr noundef nonnull @.str.88)
  store i32 %1, ptr @proto_fr, align 4
  tail call void @proto_register_field_array(i32 noundef %1, ptr noundef nonnull @proto_register_fr.hf, i32 noundef 33)
  tail call void @proto_register_subtree_array(ptr noundef nonnull @proto_register_fr.ett, i32 noundef 3)
  %2 = load i32, ptr @proto_fr, align 4
  %3 = tail call ptr @expert_register_protocol(i32 noundef %2)
  tail call void @expert_register_field_array(ptr noundef %3, ptr noundef nonnull @proto_register_fr.ei, i32 noundef 3)
  %4 = load i32, ptr @proto_fr, align 4
  %5 = tail call ptr @register_dissector_table(ptr noundef nonnull @.str.55, ptr noundef nonnull @.str.89, i32 noundef %4, i32 noundef 4, i32 noundef 2)
  store ptr %5, ptr @fr_subdissector_table, align 8
  %6 = load i32, ptr @proto_fr, align 4
  %7 = tail call ptr @register_dissector_table(ptr noundef nonnull @.str.90, ptr noundef nonnull @.str.91, i32 noundef %6, i32 noundef 4, i32 noundef 2)
  store ptr %7, ptr @fr_osinl_subdissector_table, align 8
  %8 = load i32, ptr @proto_fr, align 4
  %9 = tail call ptr @register_dissector(ptr noundef nonnull @.str.92, ptr noundef nonnull @dissect_fr_uncompressed, i32 noundef %8)
  %10 = load i32, ptr @proto_fr, align 4
  %11 = tail call ptr @register_dissector(ptr noundef nonnull @.str.88, ptr noundef nonnull @dissect_fr, i32 noundef %10)
  store ptr %11, ptr @fr_handle, align 8
  %12 = load i32, ptr @proto_fr, align 4
  %13 = tail call ptr @register_dissector(ptr noundef nonnull @.str.93, ptr noundef nonnull @dissect_fr_stripped_address, i32 noundef %12)
  %14 = load i32, ptr @proto_fr, align 4
  %15 = tail call ptr @prefs_register_protocol(i32 noundef %14, ptr noundef null)
  tail call void @prefs_register_enum_preference(ptr noundef %15, ptr noundef nonnull @.str.94, ptr noundef nonnull @.str.95, ptr noundef nonnull @.str.95, ptr noundef nonnull @fr_encap, ptr noundef nonnull @proto_register_fr.fr_encap_options, i1 noundef zeroext false)
  tail call void @register_capture_dissector_table(ptr noundef nonnull @.str.55, ptr noundef nonnull @.str.89)
  ret void
}